target datalayout = "e-m:e-p270:32:32-p271:32:32-p272:64:64-i64:64-i128:128-f80:128-n8:16:32:64-S128"
target triple = "x86_64-unknown-linux-gnu"

@.str.88 = private unnamed_addr constant [11 x i8] c"0123456789\00", align 1

; Function Attrs: nounwind sspstrong uwtable
define internal i32 @parse_uint32(ptr noundef %src, ptr noundef %dest) #0 {
entry:
  %retval = alloca i32, align 4
  %src.addr = alloca ptr, align 8
  %dest.addr = alloca ptr, align 8
  store ptr %src, ptr %src.addr, align 8
  store ptr %dest, ptr %dest.addr, align 8
  %0 = load ptr, ptr %src.addr, align 8
  %call = call i64 @strlen(ptr noundef %0) #9
  %cmp = icmp eq i64 %call, 0
  br i1 %cmp, label %if.then, label %lor.lhs.false

lor.lhs.false:                                    ; preds = %entry
  %1 = load ptr, ptr %src.addr, align 8
  %call1 = call i64 @strspn(ptr noundef %1, ptr noundef @.str.88) #9
  %2 = load ptr, ptr %src.addr, align 8
  %call2 = call i64 @strlen(ptr noundef %2) #9
  %cmp3 = icmp ne i64 %call1, %call2
  br i1 %cmp3, label %if.then, label %if.end

if.then:                                          ; preds = %lor.lhs.false, %entry
  store i32 0, ptr %retval, align 4
  br label %return

if.end:                                           ; preds = %lor.lhs.false
  %3 = load ptr, ptr %src.addr, align 8
  %call4 = call i64 @strtoul(ptr noundef %3, ptr noundef null, i32 noundef 10) #10
  %conv = trunc i64 %call4 to i32
  %4 = load ptr, ptr %dest.addr, align 8
  store i32 %conv, ptr %4, align 4
  store i32 1, ptr %retval, align 4
  br label %return

return:                                           ; preds = %if.end, %if.then
  %5 = load i32, ptr %retval, align 4
  ret i32 %5
}