; Function Attrs: mustprogress nofree nounwind sspstrong willreturn uwtable
define internal fastcc range(i32 0, 2) i32 @parse_uint32(ptr noundef readonly captures(none) %src, ptr noundef writeonly captures(none) %dest) unnamed_addr #7 {
entry:
  %call = tail call i64 @strlen(ptr noundef nonnull dereferenceable(1) %src) #21
  %cmp = icmp eq i64 %call, 0
  br i1 %cmp, label %return, label %lor.lhs.false

lor.lhs.false:                                    ; preds = %entry
  %call1 = tail call i64 @strspn(ptr noundef nonnull %src, ptr noundef nonnull @.str.88) #21
  %cmp3.not = icmp eq i64 %call1, %call
  br i1 %cmp3.not, label %if.end, label %return

if.end:                                           ; preds = %lor.lhs.false
  %call4 = tail call i64 @strtoul(ptr noundef nonnull captures(none) %src, ptr noundef null, i32 noundef 10) #20
  %conv = trunc i64 %call4 to i32
  store i32 %conv, ptr %dest, align 4
  br label %return

return:                                           ; preds = %entry, %lor.lhs.false, %if.end
  %retval.0 = phi i32 [ 1, %if.end ], [ 0, %lor.lhs.false ], [ 0, %entry ]
  ret i32 %retval.0
}